target datalayout = "e-m:e-p270:32:32-p271:32:32-p272:64:64-i64:64-i128:128-f80:128-n8:16:32:64-S128"
target triple = "x86_64-pc-linux-gnu"

%"struct.std::pair.2" = type <{ ptr, i32, [4 x i8] }>

; Function Attrs: mustprogress nounwind uwtable
define linkonce_odr hidden void @_ZNSt4pairIPKcjEC2IDniTnNSt9enable_ifIXaaclsr5_PCCPE22_MoveConstructiblePairIT_T0_EEclsr5_PCCPE30_ImplicitlyMoveConvertiblePairIS5_S6_EEEbE4typeELb1EEEOS5_OS6_(ptr noundef nonnull align 8 dereferenceable(12) %0, ptr noundef nonnull align 8 dereferenceable(8) %1, ptr noundef nonnull align 4 dereferenceable(4) %2) unnamed_addr #7 comdat align 2 {
  %4 = alloca ptr, align 8
  %5 = alloca ptr, align 8
  %6 = alloca ptr, align 8
  store ptr %0, ptr %4, align 8, !tbaa !100
  store ptr %1, ptr %5, align 8, !tbaa !45
  store ptr %2, ptr %6, align 8, !tbaa !29
  %7 = load ptr, ptr %4, align 8
  %8 = getelementptr inbounds nuw %"struct.std::pair.2", ptr %7, i32 0, i32 0
  store ptr null, ptr %8, align 8, !tbaa !102
  %9 = getelementptr inbounds nuw %"struct.std::pair.2", ptr %7, i32 0, i32 1
  %10 = load ptr, ptr %6, align 8, !tbaa !29
  %11 = load i32, ptr %10, align 4, !tbaa !19
  store i32 %11, ptr %9, align 8, !tbaa !104
  ret void
}

; Function Attrs: mustprogress nounwind uwtable
define linkonce_odr hidden void @_ZNSt4pairIPKcjEC2IS1_RjTnNSt9enable_ifIXaaclsr5_PCCPE22_MoveConstructiblePairIT_T0_EEclsr5_PCCPE30_ImplicitlyMoveConvertiblePairIS6_S7_EEEbE4typeELb1EEEOS6_OS7_(ptr noundef nonnull align 8 dereferenceable(12) %0, ptr noundef nonnull align 8 dereferenceable(8) %1, ptr noundef nonnull align 4 dereferenceable(4) %2) unnamed_addr #7 comdat align 2 {
  %4 = alloca ptr, align 8
  %5 = alloca ptr, align 8
  %6 = alloca ptr, align 8
  store ptr %0, ptr %4, align 8, !tbaa !100
  store ptr %1, ptr %5, align 8, !tbaa !54
  store ptr %2, ptr %6, align 8, !tbaa !29
  %7 = load ptr, ptr %4, align 8
  %8 = getelementptr inbounds nuw %"struct.std::pair.2", ptr %7, i32 0, i32 0
  %9 = load ptr, ptr %5, align 8, !tbaa !54
  %10 = load ptr, ptr %9, align 8, !tbaa !16
  store ptr %10, ptr %8, align 8, !tbaa !102
  %11 = getelementptr inbounds nuw %"struct.std::pair.2", ptr %7, i32 0, i32 1
  %12 = load ptr, ptr %6, align 8, !tbaa !29
  %13 = load i32, ptr %12, align 4, !tbaa !19
  store i32 %13, ptr %11, align 8, !tbaa !104
  ret void
}

; Function Attrs: mustprogress uwtable
define hidden { ptr, i32 } @_ZN6google8protobuf8internal15ReadTagFallbackEPKcj(ptr noundef %0, i32 noundef %1) #4 {
  %3 = alloca %"struct.std::pair.2", align 8
  %4 = alloca ptr, align 8
  %5 = alloca i32, align 4
  %6 = alloca i32, align 4
  %7 = alloca i32, align 4
  %8 = alloca i32, align 4
  %9 = alloca ptr, align 8
  %10 = alloca ptr, align 8
  %11 = alloca i32, align 4
  store ptr %0, ptr %4, align 8, !tbaa !16
  store i32 %1, ptr %5, align 4, !tbaa !19
  call void @llvm.lifetime.start.p0(i64 4, ptr %6) #3
  store i32 2, ptr %6, align 4, !tbaa !19
  br label %12

12:                                               ; preds = %45, %2
  %13 = load i32, ptr %6, align 4, !tbaa !19
  %14 = icmp ult i32 %13, 5
  br i1 %14, label %16, label %15

15:                                               ; preds = %12
  store i32 2, ptr %7, align 4
  br label %48

16:                                               ; preds = %12
  call void @llvm.lifetime.start.p0(i64 4, ptr %8) #3
  %17 = load ptr, ptr %4, align 8, !tbaa !16
  %18 = load i32, ptr %6, align 4, !tbaa !19
  %19 = zext i32 %18 to i64
  %20 = getelementptr inbounds nuw i8, ptr %17, i64 %19
  %21 = load i8, ptr %20, align 1, !tbaa !85
  %22 = zext i8 %21 to i32
  store i32 %22, ptr %8, align 4, !tbaa !19
  %23 = load i32, ptr %8, align 4, !tbaa !19
  %24 = sub i32 %23, 1
  %25 = load i32, ptr %6, align 4, !tbaa !19
  %26 = mul i32 7, %25
  %27 = shl i32 %24, %26
  %28 = load i32, ptr %5, align 4, !tbaa !19
  %29 = add i32 %28, %27
  store i32 %29, ptr %5, align 4, !tbaa !19
  %30 = load i32, ptr %8, align 4, !tbaa !19
  %31 = icmp ult i32 %30, 128
  %32 = zext i1 %31 to i64
  %33 = call i64 @llvm.expect.i64(i64 %32, i64 1)
  %34 = icmp ne i64 %33, 0
  br i1 %34, label %35, label %41

35:                                               ; preds = %16
  call void @llvm.lifetime.start.p0(i64 8, ptr %9) #3
  %36 = load ptr, ptr %4, align 8, !tbaa !16
  %37 = load i32, ptr %6, align 4, !tbaa !19
  %38 = zext i32 %37 to i64
  %39 = getelementptr inbounds nuw i8, ptr %36, i64 %38
  %40 = getelementptr inbounds i8, ptr %39, i64 1
  store ptr %40, ptr %9, align 8, !tbaa !16
  call void @_ZNSt4pairIPKcjEC2IS1_RjTnNSt9enable_ifIXaaclsr5_PCCPE22_MoveConstructiblePairIT_T0_EEclsr5_PCCPE30_ImplicitlyMoveConvertiblePairIS6_S7_EEEbE4typeELb1EEEOS6_OS7_(ptr noundef nonnull align 8 dereferenceable(12) %3, ptr noundef nonnull align 8 dereferenceable(8) %9, ptr noundef nonnull align 4 dereferenceable(4) %5)
  call void @llvm.lifetime.end.p0(i64 8, ptr %9) #3
  store i32 1, ptr %7, align 4
  br label %42

41:                                               ; preds = %16
  store i32 0, ptr %7, align 4
  br label %42

42:                                               ; preds = %41, %35
  call void @llvm.lifetime.end.p0(i64 4, ptr %8) #3
  %43 = load i32, ptr %7, align 4
  switch i32 %43, label %48 [
    i32 0, label %44
  ]

44:                                               ; preds = %42
  br label %45

45:                                               ; preds = %44
  %46 = load i32, ptr %6, align 4, !tbaa !19
  %47 = add i32 %46, 1
  store i32 %47, ptr %6, align 4, !tbaa !19
  br label %12, !llvm.loop !113

48:                                               ; preds = %42, %15
  call void @llvm.lifetime.end.p0(i64 4, ptr %6) #3
  %49 = load i32, ptr %7, align 4
  switch i32 %49, label %53 [
    i32 2, label %50
    i32 1, label %51
  ]

50:                                               ; preds = %48
  call void @llvm.lifetime.start.p0(i64 8, ptr %10) #3
  store ptr null, ptr %10, align 8, !tbaa !31
  call void @llvm.lifetime.start.p0(i64 4, ptr %11) #3
  store i32 0, ptr %11, align 4, !tbaa !19
  call void @_ZNSt4pairIPKcjEC2IDniTnNSt9enable_ifIXaaclsr5_PCCPE22_MoveConstructiblePairIT_T0_EEclsr5_PCCPE30_ImplicitlyMoveConvertiblePairIS5_S6_EEEbE4typeELb1EEEOS5_OS6_(ptr noundef nonnull align 8 dereferenceable(12) %3, ptr noundef nonnull align 8 dereferenceable(8) %10, ptr noundef nonnull align 4 dereferenceable(4) %11)
  call void @llvm.lifetime.end.p0(i64 4, ptr %11) #3
  call void @llvm.lifetime.end.p0(i64 8, ptr %10) #3
  br label %51

51:                                               ; preds = %50, %48
  %52 = load { ptr, i32 }, ptr %3, align 8
  ret { ptr, i32 } %52

53:                                               ; preds = %48
  unreachable
}